target datalayout = "e-m:e-p270:32:32-p271:32:32-p272:64:64-i64:64-i128:128-f80:128-n8:16:32:64-S128"
target triple = "x86_64-pc-linux-gnu"

%struct.epan_column_info = type { ptr, i32, ptr, ptr, ptr, %struct.col_expr_t, i32, ptr }
%struct.col_expr_t = type { ptr, ptr }
%struct.col_item_t = type { i32, ptr, ptr, ptr, i32, ptr, ptr, ptr, ptr, i32, i32, i32 }

; Function Attrs: nounwind uwtable
define void @col_custom_prime_edt(ptr noundef %0, ptr noundef %1) #0 {
  %3 = alloca ptr, align 8
  %4 = alloca ptr, align 8
  %5 = alloca i32, align 4
  %6 = alloca ptr, align 8
  store ptr %0, ptr %3, align 8
  store ptr %1, ptr %4, align 8
  %7 = load ptr, ptr %4, align 8
  %8 = icmp ne ptr %7, null
  br i1 %8, label %9, label %16

9:                                                ; preds = %2
  %10 = load ptr, ptr %4, align 8
  %11 = getelementptr inbounds %struct.epan_column_info, ptr %10, i32 0, i32 3
  %12 = load ptr, ptr %11, align 8
  %13 = getelementptr i32, ptr %12, i64 4
  %14 = load i32, ptr %13, align 4
  %15 = icmp sge i32 %14, 0
  br i1 %15, label %17, label %16

16:                                               ; preds = %9, %2
  br label %58

17:                                               ; preds = %9
  %18 = load ptr, ptr %4, align 8
  %19 = getelementptr inbounds %struct.epan_column_info, ptr %18, i32 0, i32 3
  %20 = load ptr, ptr %19, align 8
  %21 = getelementptr i32, ptr %20, i64 4
  %22 = load i32, ptr %21, align 4
  store i32 %22, ptr %5, align 4
  br label %23

23:                                               ; preds = %55, %17
  %24 = load i32, ptr %5, align 4
  %25 = load ptr, ptr %4, align 8
  %26 = getelementptr inbounds %struct.epan_column_info, ptr %25, i32 0, i32 4
  %27 = load ptr, ptr %26, align 8
  %28 = getelementptr i32, ptr %27, i64 4
  %29 = load i32, ptr %28, align 4
  %30 = icmp sle i32 %24, %29
  br i1 %30, label %31, label %58

31:                                               ; preds = %23
  %32 = load ptr, ptr %4, align 8
  %33 = getelementptr inbounds %struct.epan_column_info, ptr %32, i32 0, i32 2
  %34 = load ptr, ptr %33, align 8
  %35 = load i32, ptr %5, align 4
  %36 = sext i32 %35 to i64
  %37 = getelementptr %struct.col_item_t, ptr %34, i64 %36
  store ptr %37, ptr %6, align 8
  %38 = load ptr, ptr %6, align 8
  %39 = getelementptr inbounds %struct.col_item_t, ptr %38, i32 0, i32 1
  %40 = load ptr, ptr %39, align 8
  %41 = getelementptr i32, ptr %40, i64 4
  %42 = load i32, ptr %41, align 4
  %43 = icmp ne i32 %42, 0
  br i1 %43, label %44, label %54

44:                                               ; preds = %31
  %45 = load ptr, ptr %6, align 8
  %46 = getelementptr inbounds %struct.col_item_t, ptr %45, i32 0, i32 6
  %47 = load ptr, ptr %46, align 8
  %48 = icmp ne ptr %47, null
  br i1 %48, label %49, label %54

49:                                               ; preds = %44
  %50 = load ptr, ptr %3, align 8
  %51 = load ptr, ptr %6, align 8
  %52 = getelementptr inbounds %struct.col_item_t, ptr %51, i32 0, i32 6
  %53 = load ptr, ptr %52, align 8
  call void @epan_dissect_prime_with_dfilter(ptr noundef %50, ptr noundef %53)
  br label %54

54:                                               ; preds = %49, %44, %31
  br label %55

55:                                               ; preds = %54
  %56 = load i32, ptr %5, align 4
  %57 = add i32 %56, 1
  store i32 %57, ptr %5, align 4
  br label %23, !llvm.loop !16

58:                                               ; preds = %23, %16
  ret void
}