; Function Attrs: nounwind uwtable
define void @col_custom_prime_edt(ptr noundef %0, ptr noundef readonly %1) local_unnamed_addr #0 {
  %.not = icmp eq ptr %1, null
  br i1 %.not, label %.loopexit, label %3

3:                                                ; preds = %2
  %4 = getelementptr inbounds nuw i8, ptr %1, i64 24
  %5 = load ptr, ptr %4, align 8
  %6 = getelementptr i8, ptr %5, i64 16
  %7 = load i32, ptr %6, align 4
  %8 = icmp sgt i32 %7, -1
  br i1 %8, label %.preheader, label %.loopexit

.preheader:                                       ; preds = %3
  %9 = getelementptr inbounds nuw i8, ptr %1, i64 32
  %10 = load ptr, ptr %9, align 8
  %11 = getelementptr i8, ptr %10, i64 16
  %12 = load i32, ptr %11, align 4
  %.not1417 = icmp sgt i32 %7, %12
  br i1 %.not1417, label %.loopexit, label %.lr.ph

.lr.ph:                                           ; preds = %.preheader
  %13 = getelementptr inbounds nuw i8, ptr %1, i64 16
  br label %14

14:                                               ; preds = %.lr.ph, %27
  %15 = phi ptr [ %10, %.lr.ph ], [ %28, %27 ]
  %.018 = phi i32 [ %7, %.lr.ph ], [ %29, %27 ]
  %16 = load ptr, ptr %13, align 8
  %17 = sext i32 %.018 to i64
  %18 = getelementptr %struct.col_item_t, ptr %16, i64 %17
  %19 = getelementptr inbounds nuw i8, ptr %18, i64 8
  %20 = load ptr, ptr %19, align 8
  %21 = getelementptr i8, ptr %20, i64 16
  %22 = load i32, ptr %21, align 4
  %.not15 = icmp eq i32 %22, 0
  br i1 %.not15, label %27, label %23

23:                                               ; preds = %14
  %24 = getelementptr inbounds nuw i8, ptr %18, i64 48
  %25 = load ptr, ptr %24, align 8
  %.not16 = icmp eq ptr %25, null
  br i1 %.not16, label %27, label %26

26:                                               ; preds = %23
  tail call void @epan_dissect_prime_with_dfilter(ptr noundef %0, ptr noundef nonnull %25) #16
  %.pre = load ptr, ptr %9, align 8
  br label %27

27:                                               ; preds = %14, %23, %26
  %28 = phi ptr [ %15, %14 ], [ %15, %23 ], [ %.pre, %26 ]
  %29 = add i32 %.018, 1
  %30 = getelementptr i8, ptr %28, i64 16
  %31 = load i32, ptr %30, align 4
  %.not14 = icmp sgt i32 %29, %31
  br i1 %.not14, label %.loopexit, label %14, !llvm.loop !16

.loopexit:                                        ; preds = %27, %.preheader, %2, %3
  ret void
}